; Function Attrs: nounwind uwtable
define zeroext range(i8 0, 2) i8 @lean_is_eager_lambda_lifting_name(ptr noundef %0) local_unnamed_addr #0 {
  br label %lean_dec.exit22

lean_dec.exit22:                                  ; preds = %lean_dec.exit22.backedge, %1
  %.019 = phi ptr [ %0, %1 ], [ %.019.be, %lean_dec.exit22.backedge ]
  %2 = ptrtoint ptr %.019 to i64
  %3 = and i64 %2, 1
  %.not.i33 = icmp eq i64 %3, 0
  br i1 %.not.i33, label %7, label %4

4:                                                ; preds = %lean_dec.exit22
  %5 = lshr i64 %2, 1
  %6 = trunc i64 %5 to i32
  br label %lean_obj_tag.exit

7:                                                ; preds = %lean_dec.exit22
  %8 = getelementptr i8, ptr %.019, i64 4
  %.val.i = load i32, ptr %8, align 4
  %9 = lshr i32 %.val.i, 24
  br label %lean_obj_tag.exit

lean_obj_tag.exit:                                ; preds = %4, %7
  %.0.i = phi i32 [ %6, %4 ], [ %9, %7 ]
  switch i32 %.0.i, label %56 [
    i32 0, label %lean_dec.exit22.thread
    i32 1, label %10
  ]

10:                                               ; preds = %lean_obj_tag.exit
  %11 = getelementptr inbounds nuw i8, ptr %.019, i64 8
  %12 = load ptr, ptr %11, align 8, !tbaa !4
  %13 = ptrtoint ptr %12 to i64
  %14 = and i64 %13, 1
  %.not = icmp eq i64 %14, 0
  br i1 %.not, label %15, label %lean_inc.exit

15:                                               ; preds = %10
  %.val.i34 = load i32, ptr %12, align 4, !tbaa !8
  %16 = icmp sgt i32 %.val.i34, 0
  br i1 %16, label %17, label %19, !prof !11

17:                                               ; preds = %15
  %18 = add nuw i32 %.val.i34, 1
  store i32 %18, ptr %12, align 4, !tbaa !8
  br label %lean_inc.exit

19:                                               ; preds = %15
  %.not.i35 = icmp eq i32 %.val.i34, 0
  br i1 %.not.i35, label %lean_inc.exit, label %20

20:                                               ; preds = %19
  tail call void @lean_inc_ref_cold(ptr noundef nonnull %12) #4
  br label %lean_inc.exit

lean_inc.exit:                                    ; preds = %20, %19, %17, %10
  %21 = getelementptr inbounds nuw i8, ptr %.019, i64 16
  %22 = load ptr, ptr %21, align 8, !tbaa !4
  %23 = ptrtoint ptr %22 to i64
  %24 = and i64 %23, 1
  %.not46 = icmp eq i64 %24, 0
  br i1 %.not46, label %25, label %lean_inc.exit25

25:                                               ; preds = %lean_inc.exit
  %.val.i36 = load i32, ptr %22, align 4, !tbaa !8
  %26 = icmp sgt i32 %.val.i36, 0
  br i1 %26, label %27, label %29, !prof !11

27:                                               ; preds = %25
  %28 = add nuw i32 %.val.i36, 1
  store i32 %28, ptr %22, align 4, !tbaa !8
  br label %lean_inc.exit25

29:                                               ; preds = %25
  %.not.i37 = icmp eq i32 %.val.i36, 0
  br i1 %.not.i37, label %lean_inc.exit25, label %30

30:                                               ; preds = %29
  tail call void @lean_inc_ref_cold(ptr noundef nonnull %22) #4
  br label %lean_inc.exit25

lean_inc.exit25:                                  ; preds = %30, %29, %27, %lean_inc.exit
  br i1 %.not.i33, label %31, label %lean_dec.exit24

31:                                               ; preds = %lean_inc.exit25
  %32 = load i32, ptr %.019, align 4, !tbaa !8
  %33 = icmp sgt i32 %32, 1
  br i1 %33, label %34, label %36, !prof !11

34:                                               ; preds = %31
  %35 = add nsw i32 %32, -1
  store i32 %35, ptr %.019, align 4, !tbaa !8
  br label %lean_dec.exit24

36:                                               ; preds = %31
  %.not.i = icmp eq i32 %32, 0
  br i1 %.not.i, label %lean_dec.exit24, label %37

37:                                               ; preds = %36
  tail call void @lean_dec_ref_cold(ptr noundef nonnull %.019) #4
  br label %lean_dec.exit24

lean_dec.exit24:                                  ; preds = %37, %36, %34, %lean_inc.exit25
  %38 = load ptr, ptr @l_Lean_Compiler_isEagerLambdaLiftingName___closed__1, align 8, !tbaa !4
  %39 = tail call zeroext i8 @l_String_isPrefixOf(ptr noundef %38, ptr noundef %22) #4
  br i1 %.not46, label %40, label %lean_dec.exit23

40:                                               ; preds = %lean_dec.exit24
  %41 = load i32, ptr %22, align 4, !tbaa !8
  %42 = icmp sgt i32 %41, 1
  br i1 %42, label %43, label %45, !prof !11

43:                                               ; preds = %40
  %44 = add nsw i32 %41, -1
  store i32 %44, ptr %22, align 4, !tbaa !8
  br label %lean_dec.exit23

45:                                               ; preds = %40
  %.not.i27 = icmp eq i32 %41, 0
  br i1 %.not.i27, label %lean_dec.exit23, label %46

46:                                               ; preds = %45
  tail call void @lean_dec_ref_cold(ptr noundef nonnull %22) #4
  br label %lean_dec.exit23

lean_dec.exit23:                                  ; preds = %46, %45, %43, %lean_dec.exit24
  %47 = icmp eq i8 %39, 0
  br i1 %47, label %lean_dec.exit22.backedge, label %48

48:                                               ; preds = %lean_dec.exit23
  br i1 %.not, label %49, label %lean_dec.exit22.thread

49:                                               ; preds = %48
  %50 = load i32, ptr %12, align 4, !tbaa !8
  %51 = icmp sgt i32 %50, 1
  br i1 %51, label %52, label %54, !prof !11

52:                                               ; preds = %49
  %53 = add nsw i32 %50, -1
  store i32 %53, ptr %12, align 4, !tbaa !8
  br label %lean_dec.exit22.thread

54:                                               ; preds = %49
  %.not.i29 = icmp eq i32 %50, 0
  br i1 %.not.i29, label %lean_dec.exit22.thread, label %55

55:                                               ; preds = %54
  tail call void @lean_dec_ref_cold(ptr noundef nonnull %12) #4
  br label %lean_dec.exit22.thread

56:                                               ; preds = %lean_obj_tag.exit
  %57 = getelementptr inbounds nuw i8, ptr %.019, i64 8
  %58 = load ptr, ptr %57, align 8, !tbaa !4
  %59 = ptrtoint ptr %58 to i64
  %60 = and i64 %59, 1
  %.not48 = icmp eq i64 %60, 0
  br i1 %.not48, label %61, label %lean_inc.exit26

61:                                               ; preds = %56
  %.val.i39 = load i32, ptr %58, align 4, !tbaa !8
  %62 = icmp sgt i32 %.val.i39, 0
  br i1 %62, label %63, label %65, !prof !11

63:                                               ; preds = %61
  %64 = add nuw i32 %.val.i39, 1
  store i32 %64, ptr %58, align 4, !tbaa !8
  br label %lean_inc.exit26

65:                                               ; preds = %61
  %.not.i40 = icmp eq i32 %.val.i39, 0
  br i1 %.not.i40, label %lean_inc.exit26, label %66

66:                                               ; preds = %65
  tail call void @lean_inc_ref_cold(ptr noundef nonnull %58) #4
  br label %lean_inc.exit26

lean_inc.exit26:                                  ; preds = %66, %65, %63, %56
  br i1 %.not.i33, label %67, label %lean_dec.exit22.backedge

lean_dec.exit22.backedge:                         ; preds = %lean_inc.exit26, %70, %72, %73, %lean_dec.exit23
  %.019.be = phi ptr [ %12, %lean_dec.exit23 ], [ %58, %73 ], [ %58, %72 ], [ %58, %70 ], [ %58, %lean_inc.exit26 ]
  br label %lean_dec.exit22

67:                                               ; preds = %lean_inc.exit26
  %68 = load i32, ptr %.019, align 4, !tbaa !8
  %69 = icmp sgt i32 %68, 1
  br i1 %69, label %70, label %72, !prof !11

70:                                               ; preds = %67
  %71 = add nsw i32 %68, -1
  store i32 %71, ptr %.019, align 4, !tbaa !8
  br label %lean_dec.exit22.backedge

72:                                               ; preds = %67
  %.not.i31 = icmp eq i32 %68, 0
  br i1 %.not.i31, label %lean_dec.exit22.backedge, label %73

73:                                               ; preds = %72
  tail call void @lean_dec_ref_cold(ptr noundef nonnull %.019) #4
  br label %lean_dec.exit22.backedge

lean_dec.exit22.thread:                           ; preds = %lean_obj_tag.exit, %48, %52, %54, %55
  %.1 = phi i8 [ 1, %55 ], [ 1, %54 ], [ 1, %52 ], [ 1, %48 ], [ 0, %lean_obj_tag.exit ]
  ret i8 %.1
}